-----BEGIN RSA PRIVATE KEY-----
Proc-Type: 4,ENCRYPTED
DEK-Info: AES-128-CBC,C2C9F44129070F973AE63D8BF1F13357

kV4d5Xzv3IsW3drJdJPORhiMuhp2eJ0hBhcrwam43x58vkSMN24qooyUa5vAO0QI
aIazpkRbh6SWZQ+xbQFoyXfy+9C8cpi/HoIhLFZ/+EWTIVN28tNoDbh3wmA2NKD0
qvs5VzrKiiuFNFDyvbpN1Huy7+Qi0y6GZ97BFexvfS3jFLhJ/h7hQYJ7HqJTWbsW
PORpf7bArtL76KQx0d76DMXwTTUzTmjTMoIJgHzEX5vjqUQ4VRjchVeZiCXjQlV0
XIXQG3sEDcZs6EIx6ozvafbk5gD1dcqkyFXMFzJmpa4LcmyAm0cznrbDlJ1voXBc
wms6UP8wlrRT+nYnAvCTpnMZk+fzqZoE6pCw/oYxazfrDBiW0Udne2ihArRoANni
bbD1wARTSL0qWWmAeVTXU5g+jRXhThfenejaKTKqLBENXkgUO/uomyqUENv4495D
ZHPrVkiBwCrIkj5lyX4sreU2xqwmC47QmKoNi6Yz1e45Z5nBZiEQ5aVUqUTGjzcv
8iLYbH0uiO4z5CL0dlnGmKCOPnoic7iVxKYtjpKPcg3U4GPXBP3sect7sZC5soyN
Lk8RHussagnoaZZBZYf47p0C7KG+a0jGKuQtnR+z2DPzL/iRovymb6CS4OxP0IeT
PmmZ3Gn7Zu2ETEnQbDpvbqi5nbetbtH+NUtnL/YBtHzFuStNO5h9JTHr22t/nvWF
am/zUgBjJP6c5bjHtB5LeNclmbG0XHq3d3ifAe3p3DgnOVCpTcAIyuzkAGWJW1TW
IeRyynEE2xJYe0i+fs2T4bBoIqI4FYpeGWdlXRh3OFGDoUJ6gpHTv1r+c9KqxtAJ
ksIZBkKcxjHkl0T4eBdqOa+GoKZUgtXNVAZ40wN4FYiQMGYPXrJ6fBq4N2lO2v8u
/2pSA1+XGzLHsIxMMzzOeC3NmjKebFdPc6Ilo+RBrnk9/V/8C7tAldzpqOP/PqK6
OCaWdMpfXUR704ze21eTvDIfg+U1vClL3mu2enMlL96n+KK43x4TAY5QQDXsldv0
iSZj/ptnTsTmOMRVxtG3aRCWhWJi+Sg0dEuUbSoBwrET+BCOVTxvO/tmk4UsusFf
GKgvt3Pzd9C8zTmyBdEywquv8UXgwlR36yHfj90jIOgJTZlK1/X5GUmJM97JAkRm
eE8Jk9aZA6gr+QKhqKTwdIdaEMHjanh4zIMypR+7FMuTaVdhf8f5F8WahhwIrMtU
DgazZOyZjBZniNYHeJyPNsVKTxnI1DMeWNpG5JPfBoE7h+62LsREgsMpCXA1v9X0
/6G/UnSfyBeSCYzYIup5c2xg982ewKNQzRCCjjK+HZRvDlocbkwdoF9WzuedER9q
nBrHI0ON1gfPY/RKZ9l7Hcbd1OAokvPWaComG6j4X6gf/xsPnl0habRGRme9Bw0I
V5NL4kWoQE6U4B4bhFsCPod7FUlnG+lCJL/6WZUw0Qn/BoQuQwzPzytzx0gfUmFr
Wakr+fXcx9A8JzLt2ZW6+Lnck0WH3YFlEg4ENYDpkXrBy0byAhABEE9QosrR1ddT
1r9xIBo+kaKK273E3j3EoOciPbhgFibdIW3naxU3V03odeGYsNOcZehVUOOWzspl
-----END RSA PRIVATE KEY-----
Certificate:
    Data:
        Version: 3 (0x2)
        Serial Number: 4098 (0x1002)
        Signature Algorithm: sha256WithRSAEncryption
        Issuer: C=US, ST=Arizona, L=Tucson, O=UofA, OU=ECE, CN=ECE471/emailAddress=mitchdz@email.arizona.edu
        Validity
            Not Before: May  6 17:38:15 2020 GMT
            Not After : May  6 17:38:15 2021 GMT
        Subject: C=US, ST=Arizona, O=UofA, OU=ECE, CN=ECE471/emailAddress=mitchdz@email.arizona.edu
        Subject Public Key Info:
            Public Key Algorithm: rsaEncryption
                RSA Public-Key: (2048 bit)
                Modulus:
                    00:bd:62:29:3b:d0:e2:ee:71:78:7a:22:7f:f8:01:
                    42:4b:6c:1e:0d:bd:f3:a9:39:b1:33:0e:1d:da:c8:
                    ee:70:3c:e9:d5:4e:20:f5:57:f7:12:13:6b:23:0c:
                    72:98:af:e5:d7:2e:78:b7:0f:7f:fe:cb:fc:62:8a:
                    ec:6f:0b:c1:9b:63:49:cd:83:2a:f3:74:e2:7f:65:
                    29:17:70:be:bc:00:5f:39:cc:b8:7d:04:9d:d0:2d:
                    d8:95:e9:16:1c:e4:5c:f2:81:e9:53:e1:38:53:3a:
                    e9:06:63:0b:9c:af:f4:c8:81:97:ba:c5:2c:3f:2b:
                    f7:cc:e2:ed:db:83:71:10:07:b4:52:86:f5:c1:82:
                    62:0e:d1:86:d0:93:50:f0:68:9c:6d:59:1a:24:9b:
                    41:c4:59:89:f5:45:e0:95:b4:01:63:bf:26:99:1a:
                    3e:36:87:98:9c:3d:af:d0:74:29:6c:8d:f9:41:cb:
                    c0:08:91:fc:2a:37:3c:71:17:c7:bf:7b:1a:3a:75:
                    4f:5b:a7:57:3d:f7:c6:4b:d1:ce:dd:69:58:be:6e:
                    d6:cc:b3:28:59:a0:c0:d0:f2:f7:c0:a7:35:55:4f:
                    fe:67:6b:08:de:86:03:c7:d4:01:7a:68:73:2d:09:
                    03:13:23:da:0f:74:83:85:b6:64:16:0c:b7:21:c3:
                    37:ef
                Exponent: 65537 (0x10001)
        X509v3 extensions:
            X509v3 Basic Constraints: 
                CA:FALSE
            Netscape Comment: 
                OpenSSL Generated Certificate
            X509v3 Subject Key Identifier: 
                F2:11:49:5F:F0:0D:2F:11:39:70:88:9F:0F:49:8D:92:53:3F:40:28
            X509v3 Authority Key Identifier: 
                keyid:A4:9A:26:C5:9A:69:88:CA:9E:3A:B5:36:5C:00:92:3C:D7:59:FC:AA

    Signature Algorithm: sha256WithRSAEncryption
         6a:a2:ce:27:43:ce:48:57:56:f0:b1:a0:29:72:46:75:e4:08:
         6c:46:14:0f:b9:94:31:96:1c:cc:35:75:1c:2e:76:e2:a9:3a:
         51:18:4f:60:21:7e:2d:ec:68:8a:46:dc:da:e4:22:1c:d7:a4:
         b4:50:f7:62:44:1e:f5:bb:eb:0b:44:da:14:47:73:c3:56:ba:
         20:42:a3:bd:a9:69:9a:12:e0:8a:8b:52:5f:70:e5:62:c2:f9:
         b7:5f:a6:34:08:dc:ac:f8:12:1b:65:c0:08:c2:1a:65:9f:65:
         6c:bf:f9:64:53:46:ac:56:a8:c0:f8:8b:85:5f:86:ef:28:04:
         de:3e:43:29:82:5d:32:48:39:0b:35:1c:ae:e5:a7:87:10:7f:
         be:e5:55:60:18:8f:1e:e4:41:9a:96:84:20:8a:e8:15:f7:94:
         09:43:99:7f:9a:91:8e:ee:39:76:d9:4c:8c:14:32:84:d6:16:
         17:a8:ad:e3:ae:a0:3c:4d:6b:0a:c5:70:90:d1:db:92:79:f5:
         c1:2d:9e:10:87:e8:71:b5:fe:db:1a:d4:e8:45:7b:2d:1b:e7:
         c2:23:d1:10:8c:32:57:f7:8a:c5:fc:6d:20:0a:69:5e:70:86:
         88:a0:91:49:40:db:3b:d6:9e:dd:4f:70:03:7b:3a:67:b4:b3:
         ce:37:f5:7b:a2:93:bc:f4:05:4c:d8:92:c2:ca:7e:a9:ac:1d:
         04:86:47:4b:ef:94:86:a7:27:0e:05:2b:8a:b1:82:c7:81:8b:
         8a:45:ff:79:9b:34:44:90:22:8d:6d:63:f2:ca:dd:ec:12:31:
         ec:4e:f4:bc:dd:0a:5a:81:16:de:d9:9c:c8:e6:9f:77:9a:33:
         d7:69:f8:ee:fa:03:e7:b6:f0:1c:1b:68:e8:b3:33:c2:e9:d5:
         a4:9d:f3:6b:c8:8a:42:e8:40:e6:61:c0:d0:bd:56:1c:4b:90:
         21:bf:ea:ef:78:65:02:d5:39:80:3b:af:c2:94:6b:3c:1d:82:
         59:e9:69:65:f2:a8:e6:47:9c:03:75:73:48:ee:b3:a6:03:f4:
         9c:57:5b:73:6b:79:55:79:10:df:12:28:a1:ff:59:75:b6:16:
         46:50:7a:d0:6b:ff:fb:81:be:f8:43:13:dd:cb:58:2b:37:66:
         9a:89:23:5b:4d:86:86:2b:45:6f:9c:fa:f4:d2:8c:94:ef:aa:
         c2:5d:72:13:1c:b4:11:f7:82:79:b8:55:f8:eb:29:ec:bd:68:
         52:73:32:31:13:60:32:f2:05:4d:c6:01:0e:eb:e9:80:12:17:
         5c:3e:1d:70:8e:50:6e:4e:55:6b:b7:63:c3:2e:ce:b0:b1:53:
         e4:a9:6f:7c:fa:a6:7c:4e
-----BEGIN CERTIFICATE-----
MIIE9zCCAt+gAwIBAgICEAIwDQYJKoZIhvcNAQELBQAwgYgxCzAJBgNVBAYTAlVT
MRAwDgYDVQQIDAdBcml6b25hMQ8wDQYDVQQHDAZUdWNzb24xDTALBgNVBAoMBFVv
ZkExDDAKBgNVBAsMA0VDRTEPMA0GA1UEAwwGRUNFNDcxMSgwJgYJKoZIhvcNAQkB
FhltaXRjaGR6QGVtYWlsLmFyaXpvbmEuZWR1MB4XDTIwMDUwNjE3MzgxNVoXDTIx
MDUwNjE3MzgxNVowdzELMAkGA1UEBhMCVVMxEDAOBgNVBAgMB0FyaXpvbmExDTAL
BgNVBAoMBFVvZkExDDAKBgNVBAsMA0VDRTEPMA0GA1UEAwwGRUNFNDcxMSgwJgYJ
KoZIhvcNAQkBFhltaXRjaGR6QGVtYWlsLmFyaXpvbmEuZWR1MIIBIjANBgkqhkiG
9w0BAQEFAAOCAQ8AMIIBCgKCAQEAvWIpO9Di7nF4eiJ/+AFCS2weDb3zqTmxMw4d
2sjucDzp1U4g9Vf3EhNrIwxymK/l1y54tw9//sv8YorsbwvBm2NJzYMq83Tif2Up
F3C+vABfOcy4fQSd0C3YlekWHORc8oHpU+E4UzrpBmMLnK/0yIGXusUsPyv3zOLt
24NxEAe0Uob1wYJiDtGG0JNQ8GicbVkaJJtBxFmJ9UXglbQBY78mmRo+NoeYnD2v
0HQpbI35QcvACJH8Kjc8cRfHv3saOnVPW6dXPffGS9HO3WlYvm7WzLMoWaDA0PL3
wKc1VU/+Z2sI3oYDx9QBemhzLQkDEyPaD3SDhbZkFgy3IcM37wIDAQABo3sweTAJ
BgNVHRMEAjAAMCwGCWCGSAGG+EIBDQQfFh1PcGVuU1NMIEdlbmVyYXRlZCBDZXJ0
aWZpY2F0ZTAdBgNVHQ4EFgQU8hFJX/ANLxE5cIifD0mNklM/QCgwHwYDVR0jBBgw
FoAUpJomxZppiMqeOrU2XACSPNdZ/KowDQYJKoZIhvcNAQELBQADggIBAGqizidD
zkhXVvCxoClyRnXkCGxGFA+5lDGWHMw1dRwuduKpOlEYT2Ahfi3saIpG3NrkIhzX
pLRQ92JEHvW76wtE2hRHc8NWuiBCo72paZoS4IqLUl9w5WLC+bdfpjQI3Kz4Ehtl
wAjCGmWfZWy/+WRTRqxWqMD4i4Vfhu8oBN4+QymCXTJIOQs1HK7lp4cQf77lVWAY
jx7kQZqWhCCK6BX3lAlDmX+akY7uOXbZTIwUMoTWFheoreOuoDxNawrFcJDR25J5
9cEtnhCH6HG1/tsa1OhFey0b58Ij0RCMMlf3isX8bSAKaV5whoigkUlA2zvWnt1P
cAN7Ome0s8439Xuik7z0BUzYksLKfqmsHQSGR0vvlIanJw4FK4qxgseBi4pF/3mb
NESQIo1tY/LK3ewSMexO9LzdClqBFt7ZnMjmn3eaM9dp+O76A+e28BwbaOizM8Lp
1aSd82vIikLoQOZhwNC9VhxLkCG/6u94ZQLVOYA7r8KUazwdglnpaWXyqOZHnAN1
c0jus6YD9JxXW3NreVV5EN8SKKH/WXW2FkZQetBr//uBvvhDE93LWCs3ZpqJI1tN
hoYrRW+c+vTSjJTvqsJdchMctBH3gnm4VfjrKey9aFJzMjETYDLyBU3GAQ7r6YAS
F1w+HXCOUG5OVWu3Y8MuzrCxU+Spb3z6pnxO
-----END CERTIFICATE-----
