Certificate:
    Data:
        Version: 3 (0x2)
        Serial Number: 4098 (0x1002)
    Signature Algorithm: sha256WithRSAEncryption
        Issuer: C=CN, ST=Shanghai, L=Yangpu, O=FDU, OU=CS, CN=Guan CA/emailAddress=18307130012@fudan.edu.cn
        Validity
            Not Before: Jan  3 21:19:52 2021 GMT
            Not After : Jan  3 21:19:52 2022 GMT
        Subject: C=CN, ST=Shanghai, O=FDU, OU=CS, CN=Guan.com/emailAddress=18307130012@fudan.edu.cn
        Subject Public Key Info:
            Public Key Algorithm: rsaEncryption
                Public-Key: (2048 bit)
                Modulus:
                    00:a0:73:e0:1a:3a:6e:07:5e:54:4f:46:ee:8a:55:
                    a3:28:85:4d:13:0c:17:35:16:dd:0a:15:13:92:e7:
                    9d:42:9c:9d:25:67:0c:17:5e:44:04:72:85:9a:b2:
                    fb:8c:5e:c3:59:72:36:86:74:85:76:e6:6d:80:d1:
                    a9:31:0f:8e:21:8d:85:35:5f:c5:d8:5f:e1:fd:fd:
                    87:48:c3:c0:93:92:40:f9:29:4d:52:7f:91:c0:bd:
                    d3:38:a2:34:76:10:fe:02:84:62:f0:a7:2b:63:68:
                    dc:2b:af:b9:b6:72:72:1a:6f:4a:0a:f3:26:58:21:
                    15:4b:e6:09:92:47:e2:4f:d8:c8:72:a2:00:ab:49:
                    98:6a:8d:99:54:b3:c8:fa:25:95:bf:47:c9:84:00:
                    76:91:2b:39:b0:09:8f:38:06:58:9f:f5:b0:94:06:
                    4c:da:95:25:51:ba:f9:90:c7:52:c0:81:9c:fd:b7:
                    28:21:62:28:a6:a2:c8:74:e3:86:ff:2a:b2:e1:f9:
                    56:62:1b:5e:49:1c:b7:98:f3:42:cb:21:65:f1:5c:
                    5a:f7:91:40:a6:7b:6d:c0:1a:b5:f9:14:02:81:7a:
                    08:d5:48:5c:ec:c5:e6:2b:e0:d9:ec:22:35:09:ae:
                    5d:f7:5a:ec:dd:8f:1a:50:51:de:39:4f:ae:6a:16:
                    41:33
                Exponent: 65537 (0x10001)
        X509v3 extensions:
            X509v3 Basic Constraints: 
                CA:FALSE
            Netscape Comment: 
                OpenSSL Generated Certificate
            X509v3 Subject Key Identifier: 
                E5:51:7B:89:CF:E0:64:AE:BA:9A:4D:A0:FB:7A:10:5C:60:01:6E:D1
            X509v3 Authority Key Identifier: 
                DirName:/C=CN/ST=Shanghai/L=Yangpu/O=FDU/OU=CS/CN=Guan CA/emailAddress=18307130012@fudan.edu.cn
                serial:DB:00:2F:89:16:36:0F:F0

    Signature Algorithm: sha256WithRSAEncryption
         26:5a:43:b0:bc:13:c2:bd:0e:76:20:b4:2c:81:c4:5d:db:2e:
         26:4b:7a:ff:c2:99:dc:fa:0e:7a:c7:2e:b9:fb:5b:77:38:05:
         e9:c2:bc:c4:9f:57:6c:6e:07:ea:a5:5f:6d:f2:67:a2:56:f0:
         b4:84:a3:e5:92:4e:e8:ea:28:36:1b:a4:11:52:99:4c:3c:a5:
         61:d8:a0:c2:00:47:8f:f9:c9:47:d3:9a:6b:03:cd:0e:43:fd:
         ea:a0:79:80:9c:56:5e:b8:ec:5c:ad:a3:a3:68:6e:c7:6f:4e:
         28:a8:6e:f0:a9:4c:44:3d:ed:e3:3d:c0:95:6d:12:01:9a:cf:
         0e:a8:28:47:15:f8:f4:0c:78:c0:bf:a7:48:d7:b2:b4:a3:5a:
         2e:c2:8b:47:6b:96:df:f6:90:64:38:02:05:8e:5b:77:ed:c8:
         93:1d:64:0e:f8:75:92:28:f3:8e:e0:0a:c1:d9:a4:81:34:5b:
         3d:6c:ad:6e:3d:8e:2b:07:51:18:50:05:64:7b:8b:24:d2:5c:
         68:b2:62:b8:06:90:2a:66:89:c2:00:f2:b1:f4:4d:3c:6e:d2:
         97:9b:fd:05:47:86:92:af:8e:27:21:47:59:a0:19:6f:31:cb:
         6d:e4:a5:85:ff:b1:01:77:9e:6b:15:df:78:75:e9:44:fd:c5:
         80:f3:6b:ed
-----BEGIN CERTIFICATE-----
MIIEgjCCA2qgAwIBAgICEAIwDQYJKoZIhvcNAQELBQAwgYcxCzAJBgNVBAYTAkNO
MREwDwYDVQQIDAhTaGFuZ2hhaTEPMA0GA1UEBwwGWWFuZ3B1MQwwCgYDVQQKDANG
RFUxCzAJBgNVBAsMAkNTMRAwDgYDVQQDDAdHdWFuIENBMScwJQYJKoZIhvcNAQkB
FhgxODMwNzEzMDAxMkBmdWRhbi5lZHUuY24wHhcNMjEwMTAzMjExOTUyWhcNMjIw
MTAzMjExOTUyWjB3MQswCQYDVQQGEwJDTjERMA8GA1UECAwIU2hhbmdoYWkxDDAK
BgNVBAoMA0ZEVTELMAkGA1UECwwCQ1MxETAPBgNVBAMMCEd1YW4uY29tMScwJQYJ
KoZIhvcNAQkBFhgxODMwNzEzMDAxMkBmdWRhbi5lZHUuY24wggEiMA0GCSqGSIb3
DQEBAQUAA4IBDwAwggEKAoIBAQCgc+AaOm4HXlRPRu6KVaMohU0TDBc1Ft0KFROS
551CnJ0lZwwXXkQEcoWasvuMXsNZcjaGdIV25m2A0akxD44hjYU1X8XYX+H9/YdI
w8CTkkD5KU1Sf5HAvdM4ojR2EP4ChGLwpytjaNwrr7m2cnIab0oK8yZYIRVL5gmS
R+JP2MhyogCrSZhqjZlUs8j6JZW/R8mEAHaRKzmwCY84Blif9bCUBkzalSVRuvmQ
x1LAgZz9tyghYiimosh044b/KrLh+VZiG15JHLeY80LLIWXxXFr3kUCme23AGrX5
FAKBegjVSFzsxeYr4NnsIjUJrl33WuzdjxpQUd45T65qFkEzAgMBAAGjggEFMIIB
ATAJBgNVHRMEAjAAMCwGCWCGSAGG+EIBDQQfFh1PcGVuU1NMIEdlbmVyYXRlZCBD
ZXJ0aWZpY2F0ZTAdBgNVHQ4EFgQU5VF7ic/gZK66mk2g+3oQXGABbtEwgaYGA1Ud
IwSBnjCBm6GBjaSBijCBhzELMAkGA1UEBhMCQ04xETAPBgNVBAgMCFNoYW5naGFp
MQ8wDQYDVQQHDAZZYW5ncHUxDDAKBgNVBAoMA0ZEVTELMAkGA1UECwwCQ1MxEDAO
BgNVBAMMB0d1YW4gQ0ExJzAlBgkqhkiG9w0BCQEWGDE4MzA3MTMwMDEyQGZ1ZGFu
LmVkdS5jboIJANsAL4kWNg/wMA0GCSqGSIb3DQEBCwUAA4IBAQAmWkOwvBPCvQ52
ILQsgcRd2y4mS3r/wpnc+g56xy65+1t3OAXpwrzEn1dsbgfqpV9t8meiVvC0hKPl
kk7o6ig2G6QRUplMPKVh2KDCAEeP+clH05prA80OQ/3qoHmAnFZeuOxcraOjaG7H
b04oqG7wqUxEPe3jPcCVbRIBms8OqChHFfj0DHjAv6dI17K0o1ouwotHa5bf9pBk
OAIFjlt37ciTHWQO+HWSKPOO4ArB2aSBNFs9bK1uPY4rB1EYUAVke4sk0lxosmK4
BpAqZonCAPKx9E08btKXm/0FR4aSr44nIUdZoBlvMctt5KWF/7EBd55rFd94delE
/cWA82vt
-----END CERTIFICATE-----
